; ModuleID = '26/344.c'
source_filename = "26/344.c"
target datalayout = "e-m:e-p270:32:32-p271:32:32-p272:64:64-i64:64-f80:128-n8:16:32:64-S128"
target triple = "x86_64-pc-linux-gnu"

@.str = private unnamed_addr constant [3 x i8] c"%c\00", align 1
@.str.1 = private unnamed_addr constant [2 x i8] c" \00", align 1

; Function Attrs: noinline nounwind uwtable
define dso_local void @main() #0 {
  %1 = alloca i8*, align 8
  %2 = alloca i8*, align 8
  %3 = alloca i8*, align 8
  %4 = call noalias i8* @malloc(i64 100) #3
  store i8* %4, i8** %1, align 8
  store i8* %4, i8** %2, align 8
  %5 = call noalias i8* @malloc(i64 100) #3
  store i8* %5, i8** %3, align 8
  %6 = load i8*, i8** %1, align 8
  %7 = call i32 (i8*, ...) bitcast (i32 (...)* @gets to i32 (i8*, ...)*)(i8* %6)
  %8 = load i8*, i8** %2, align 8
  store i8* %8, i8** %1, align 8
  br label %9

9:                                                ; preds = %46, %0
  %10 = load i8*, i8** %1, align 8
  %11 = load i8, i8* %10, align 1
  %12 = sext i8 %11 to i32
  %13 = icmp ne i32 %12, 0
  br i1 %13, label %14, label %49

14:                                               ; preds = %9
  %15 = load i8*, i8** %1, align 8
  %16 = load i8, i8* %15, align 1
  %17 = sext i8 %16 to i32
  %18 = icmp ne i32 %17, 32
  br i1 %18, label %19, label %24

19:                                               ; preds = %14
  %20 = load i8*, i8** %1, align 8
  %21 = load i8, i8* %20, align 1
  %22 = sext i8 %21 to i32
  %23 = call i32 (i8*, ...) @printf(i8* getelementptr inbounds ([3 x i8], [3 x i8]* @.str, i64 0, i64 0), i32 %22)
  br label %45

24:                                               ; preds = %14
  %25 = load i8*, i8** %1, align 8
  store i8* %25, i8** %3, align 8
  br label %26

26:                                               ; preds = %41, %24
  %27 = load i8*, i8** %3, align 8
  %28 = load i8, i8* %27, align 1
  %29 = sext i8 %28 to i32
  %30 = icmp ne i32 %29, 0
  br i1 %30, label %31, label %44

31:                                               ; preds = %26
  %32 = load i8*, i8** %3, align 8
  %33 = load i8, i8* %32, align 1
  %34 = sext i8 %33 to i32
  %35 = icmp ne i32 %34, 32
  br i1 %35, label %36, label %40

36:                                               ; preds = %31
  %37 = load i8*, i8** %3, align 8
  %38 = getelementptr inbounds i8, i8* %37, i64 -1
  store i8* %38, i8** %1, align 8
  %39 = call i32 (i8*, ...) @printf(i8* getelementptr inbounds ([2 x i8], [2 x i8]* @.str.1, i64 0, i64 0))
  br label %44

40:                                               ; preds = %31
  br label %41

41:                                               ; preds = %40
  %42 = load i8*, i8** %3, align 8
  %43 = getelementptr inbounds i8, i8* %42, i32 1
  store i8* %43, i8** %3, align 8
  br label %26

44:                                               ; preds = %36, %26
  br label %45

45:                                               ; preds = %44, %19
  br label %46

46:                                               ; preds = %45
  %47 = load i8*, i8** %1, align 8
  %48 = getelementptr inbounds i8, i8* %47, i32 1
  store i8* %48, i8** %1, align 8
  br label %9

49:                                               ; preds = %9
  ret void
}

; Function Attrs: nounwind
declare dso_local noalias i8* @malloc(i64) #1

declare dso_local i32 @gets(...) #2

declare dso_local i32 @printf(i8*, ...) #2


!llvm.module.flags = !{!0}
!llvm.ident = !{!1}

!0 = !{i32 1, !"wchar_size", i32 4}
!1 = !{!"clang version 10.0.0-4ubuntu1 "}
